target datalayout = "e-m:e-p270:32:32-p271:32:32-p272:64:64-i64:64-i128:128-f80:128-n8:16:32:64-S128"
target triple = "x86_64-pc-linux-gnu"

; Function Attrs: nounwind sspstrong uwtable
define internal void @ins_methods_push(i64 noundef %0, i64 noundef %1) #0 {
  %3 = alloca i64, align 8
  %4 = alloca i64, align 8
  store i64 %0, ptr %3, align 8, !tbaa !7
  store i64 %1, ptr %4, align 8, !tbaa !7
  %5 = load i64, ptr %4, align 8, !tbaa !7
  %6 = load i64, ptr %3, align 8, !tbaa !7
  %7 = call i64 @rb_id2sym(i64 noundef %6)
  %8 = call i64 @rb_ary_push(i64 noundef %5, i64 noundef %7)
  ret void
}

; Function Attrs: nounwind sspstrong uwtable
define internal i32 @ins_methods_type_i(i64 noundef %0, i64 noundef %1, i64 noundef %2, i32 noundef %3) #0 {
  %5 = alloca i64, align 8
  %6 = alloca i64, align 8
  %7 = alloca i64, align 8
  %8 = alloca i32, align 4
  store i64 %0, ptr %5, align 8, !tbaa !7
  store i64 %1, ptr %6, align 8, !tbaa !7
  store i64 %2, ptr %7, align 8, !tbaa !7
  store i32 %3, ptr %8, align 4, !tbaa !39
  %9 = load i64, ptr %6, align 8, !tbaa !7
  %10 = trunc i64 %9 to i32
  %11 = load i32, ptr %8, align 4, !tbaa !39
  %12 = icmp eq i32 %10, %11
  br i1 %12, label %13, label %16

13:                                               ; preds = %4
  %14 = load i64, ptr %5, align 8, !tbaa !7
  %15 = load i64, ptr %7, align 8, !tbaa !7
  call void @ins_methods_push(i64 noundef %14, i64 noundef %15)
  br label %16

16:                                               ; preds = %13, %4
  ret i32 0
}

; Function Attrs: nounwind sspstrong uwtable
define internal i32 @ins_methods_pub_i(i64 noundef %0, i64 noundef %1, i64 noundef %2) #0 {
  %4 = alloca i64, align 8
  %5 = alloca i64, align 8
  %6 = alloca i64, align 8
  store i64 %0, ptr %4, align 8, !tbaa !7
  store i64 %1, ptr %5, align 8, !tbaa !7
  store i64 %2, ptr %6, align 8, !tbaa !7
  %7 = load i64, ptr %4, align 8, !tbaa !7
  %8 = load i64, ptr %5, align 8, !tbaa !7
  %9 = load i64, ptr %6, align 8, !tbaa !7
  %10 = call i32 @ins_methods_type_i(i64 noundef %7, i64 noundef %8, i64 noundef %9, i32 noundef 1)
  ret i32 %10
}