; Function Attrs: nounwind sspstrong uwtable
define internal noundef i32 @ins_methods_pub_i(i64 noundef %0, i64 noundef %1, i64 noundef %2) #0 {
  %4 = and i64 %1, 4294967295
  %5 = icmp eq i64 %4, 1
  br i1 %5, label %6, label %ins_methods_type_i.exit

6:                                                ; preds = %3
  %7 = tail call i64 @rb_id2sym(i64 noundef %0) #19
  %8 = tail call i64 @rb_ary_push(i64 noundef %2, i64 noundef %7) #19
  br label %ins_methods_type_i.exit

ins_methods_type_i.exit:                          ; preds = %3, %6
  ret i32 0
}